target datalayout = "e-m:e-p270:32:32-p271:32:32-p272:64:64-i64:64-i128:128-f80:128-n8:16:32:64-S128"
target triple = "x86_64-pc-linux-gnu"

%"class.icu_77::Package" = type <{ [64 x i8], [64 x i8], ptr, [1024 x i8], i32, i32, i8, i8, i8, i8, i32, i32, [4 x i8], ptr, i32, i32, [100000 x i8], [100000 x i8], i32, [4 x i8], ptr, ptr, i32, i32, i32, i8, [3 x i8] }>

@stderr = external global ptr, align 8
@.str.34 = private unnamed_addr constant [40 x i8] c"icupkg: sorting item names failed - %s\0A\00", align 1

; Function Attrs: inlinehint mustprogress nounwind uwtable
define internal noundef signext i8 @_ZL9U_FAILURE10UErrorCode(i32 noundef %0) #2 {
  %2 = alloca i32, align 4
  store i32 %0, ptr %2, align 4, !tbaa !13
  %3 = load i32, ptr %2, align 4, !tbaa !13
  %4 = icmp sgt i32 %3, 0
  %5 = zext i1 %4 to i8
  ret i8 %5
}

; Function Attrs: mustprogress uwtable
define void @_ZN6icu_777Package9sortItemsEv(ptr noundef nonnull align 8 dereferenceable(201237) %0) #0 align 2 {
  %2 = alloca ptr, align 8
  %3 = alloca i32, align 4
  store ptr %0, ptr %2, align 8, !tbaa !26
  %4 = load ptr, ptr %2, align 8
  call void @llvm.lifetime.start.p0(i64 4, ptr %3) #13
  store i32 0, ptr %3, align 4, !tbaa !13
  %5 = getelementptr inbounds nuw %"class.icu_77::Package", ptr %4, i32 0, i32 13
  %6 = load ptr, ptr %5, align 8, !tbaa !39
  %7 = getelementptr inbounds nuw %"class.icu_77::Package", ptr %4, i32 0, i32 10
  %8 = load i32, ptr %7, align 4, !tbaa !37
  call void @uprv_sortArray_77(ptr noundef %6, i32 noundef %8, i32 noundef 24, ptr noundef @_ZL12compareItemsPKvS0_S0_, ptr noundef null, i8 noundef signext 0, ptr noundef %3)
  %9 = load i32, ptr %3, align 4, !tbaa !13
  %10 = call noundef signext i8 @_ZL9U_FAILURE10UErrorCode(i32 noundef %9)
  %11 = icmp ne i8 %10, 0
  br i1 %11, label %12, label %18

12:                                               ; preds = %1
  %13 = load ptr, ptr @stderr, align 8, !tbaa !54
  %14 = load i32, ptr %3, align 4, !tbaa !13
  %15 = call ptr @u_errorName_77(i32 noundef %14)
  %16 = call i32 (ptr, ptr, ...) @fprintf(ptr noundef %13, ptr noundef @.str.34, ptr noundef %15) #13
  %17 = load i32, ptr %3, align 4, !tbaa !13
  call void @exit(i32 noundef %17) #14
  unreachable

18:                                               ; preds = %1
  call void @llvm.lifetime.end.p0(i64 4, ptr %3) #13
  ret void
}