; Function Attrs: mustprogress uwtable
define void @_ZN6icu_777Package9sortItemsEv(ptr noundef nonnull readonly align 8 captures(none) dereferenceable(201237) %0) local_unnamed_addr #13 align 2 {
  %2 = alloca i32, align 4
  call void @llvm.lifetime.start.p0(i64 4, ptr nonnull %2) #23
  store i32 0, ptr %2, align 4, !tbaa !3
  %3 = getelementptr inbounds nuw i8, ptr %0, i64 1184
  %4 = load ptr, ptr %3, align 8, !tbaa !30
  %5 = getelementptr inbounds nuw i8, ptr %0, i64 1172
  %6 = load i32, ptr %5, align 4, !tbaa !29
  call void @uprv_sortArray_77(ptr noundef %4, i32 noundef %6, i32 noundef 24, ptr noundef nonnull @_ZL12compareItemsPKvS0_S0_, ptr noundef null, i8 noundef signext 0, ptr noundef nonnull %2)
  %7 = load i32, ptr %2, align 4, !tbaa !3
  %8 = icmp slt i32 %7, 1
  br i1 %8, label %14, label %9

9:                                                ; preds = %1
  %10 = load ptr, ptr @stderr, align 8, !tbaa !36
  %11 = call ptr @u_errorName_77(i32 noundef %7)
  %12 = call i32 (ptr, ptr, ...) @fprintf(ptr noundef %10, ptr noundef nonnull @.str.34, ptr noundef %11) #25
  %13 = load i32, ptr %2, align 4, !tbaa !3
  call void @exit(i32 noundef %13) #22
  unreachable

14:                                               ; preds = %1
  call void @llvm.lifetime.end.p0(i64 4, ptr nonnull %2) #23
  ret void
}